(dp0
Vengine
p1
S'pdflatex'
p2
sVpackages
p3
c__builtin__
set
p4
((lp5
Vcomment
p6
aVmathrsfs
p7
aVamsmath
p8
aVlatexsym
p9
aVrotating
p10
aVamsthm
p11
aVparalist
p12
aVparskip
p13
aVtablefootnote
p14
aVmulticol
p15
aVverbatim
p16
aVstmaryrd
p17
aVsetspace
p18
aVsubfloat
p19
aVnatbib
p20
aVlongtable
p21
aVenumitem
p22
aVanysize
p23
aVindentfirst
p24
aVfullpage
p25
aVdcolumn
p26
aVmultirow
p27
aVmathabx
p28
aVappendix
p29
aVamsfonts
p30
aVgraphicx
p31
aVhyperref
p32
aVsubfigure
p33
aVepsfig
p34
aVurl
p35
aVdsfont
p36
aVgeometry
p37
aVtabularx
p38
aVtxfonts
p39
aVamssymb
p40
atp41
Rp42
sVfiles_with_guttermarks
p43
g4
((lp44
V/Users/Nick/Documents/PolGeo/gis_in_r/gis_in_r_command_cheatsheet/./gis_in_r_command_cheatsheet.tex
p45
aS'gis_in_r_command_cheatsheet.tex'
p46
atp47
Rp48
sVsynctex
p49
I01
s.